target datalayout = "e-m:e-p270:32:32-p271:32:32-p272:64:64-i64:64-i128:128-f80:128-n8:16:32:64-S128"
target triple = "x86_64-pc-linux-gnu"

@.str.4 = private unnamed_addr constant [8 x i8] c"_LOADED\00", align 1

; Function Attrs: nounwind uwtable
define dso_local void @luaL_pushmodule(ptr noundef %0, ptr noundef %1, i32 noundef %2) #0 {
  %4 = alloca ptr, align 8
  %5 = alloca ptr, align 8
  %6 = alloca i32, align 4
  store ptr %0, ptr %4, align 8, !tbaa !4
  store ptr %1, ptr %5, align 8, !tbaa !11
  store i32 %2, ptr %6, align 4, !tbaa !9
  %7 = load ptr, ptr %4, align 8, !tbaa !4
  %8 = call ptr @luaL_findtable(ptr noundef %7, i32 noundef -10000, ptr noundef @.str.4, i32 noundef 16)
  %9 = load ptr, ptr %4, align 8, !tbaa !4
  %10 = load ptr, ptr %5, align 8, !tbaa !11
  call void @lua_getfield(ptr noundef %9, i32 noundef -1, ptr noundef %10)
  %11 = load ptr, ptr %4, align 8, !tbaa !4
  %12 = call i32 @lua_type(ptr noundef %11, i32 noundef -1)
  %13 = icmp eq i32 %12, 5
  br i1 %13, label %28, label %14

14:                                               ; preds = %3
  %15 = load ptr, ptr %4, align 8, !tbaa !4
  call void @lua_settop(ptr noundef %15, i32 noundef -2)
  %16 = load ptr, ptr %4, align 8, !tbaa !4
  %17 = load ptr, ptr %5, align 8, !tbaa !11
  %18 = load i32, ptr %6, align 4, !tbaa !9
  %19 = call ptr @luaL_findtable(ptr noundef %16, i32 noundef -10002, ptr noundef %17, i32 noundef %18)
  %20 = icmp ne ptr %19, null
  br i1 %20, label %21, label %24

21:                                               ; preds = %14
  %22 = load ptr, ptr %4, align 8, !tbaa !4
  %23 = load ptr, ptr %5, align 8, !tbaa !11
  call void (ptr, i32, ...) @lj_err_callerv(ptr noundef %22, i32 noundef 1993, ptr noundef %23) #12
  unreachable

24:                                               ; preds = %14
  %25 = load ptr, ptr %4, align 8, !tbaa !4
  call void @lua_pushvalue(ptr noundef %25, i32 noundef -1)
  %26 = load ptr, ptr %4, align 8, !tbaa !4
  %27 = load ptr, ptr %5, align 8, !tbaa !11
  call void @lua_setfield(ptr noundef %26, i32 noundef -3, ptr noundef %27)
  br label %28

28:                                               ; preds = %24, %3
  %29 = load ptr, ptr %4, align 8, !tbaa !4
  call void @lua_remove(ptr noundef %29, i32 noundef -2)
  ret void
}