; Function Attrs: nounwind uwtable
define dso_local void @luaL_pushmodule(ptr noundef %0, ptr noundef %1, i32 noundef %2) local_unnamed_addr #0 {
  %4 = tail call ptr @luaL_findtable(ptr noundef %0, i32 noundef -10000, ptr noundef nonnull @.str.4, i32 noundef 16)
  tail call void @lua_getfield(ptr noundef %0, i32 noundef -1, ptr noundef %1) #13
  %5 = tail call i32 @lua_type(ptr noundef %0, i32 noundef -1) #13
  %6 = icmp eq i32 %5, 5
  br i1 %6, label %11, label %7

7:                                                ; preds = %3
  tail call void @lua_settop(ptr noundef %0, i32 noundef -2) #13
  %8 = tail call ptr @luaL_findtable(ptr noundef %0, i32 noundef -10002, ptr noundef %1, i32 noundef %2)
  %.not = icmp eq ptr %8, null
  br i1 %.not, label %10, label %9

9:                                                ; preds = %7
  tail call void (ptr, i32, ...) @lj_err_callerv(ptr noundef %0, i32 noundef 1993, ptr noundef %1) #15
  unreachable

10:                                               ; preds = %7
  tail call void @lua_pushvalue(ptr noundef %0, i32 noundef -1) #13
  tail call void @lua_setfield(ptr noundef %0, i32 noundef -3, ptr noundef %1) #13
  br label %11

11:                                               ; preds = %10, %3
  tail call void @lua_remove(ptr noundef %0, i32 noundef -2) #13
  ret void
}